(dp1
S'output'
p2
S"<type 'exceptions.NameError'> global name 'item_name' is not defined"
p3
sS'layer'
p4
S'/home/rashmi/Desktop/SCEPrjct/web2py/applications/IIIT_MarketPlace/controllers/default.py'
p5
sS'code'
p6
S'# -*- coding: utf-8 -*-\n# this file is released under public domain and you can use without limitations\n\n#########################################################################\n## This is a sample controller\n## - index is the default action of any application\n## - user is required for authentication and authorization\n## - download is for downloading files uploaded in the db (does streaming)\n## - api is an example of Hypermedia API support and access control\n#########################################################################\nimport datetime\n    \ndef enter_category(form):\n    form.vars.category=form.vars.cat_dropdown\n    \ndef post_Add():\n    form=SQLFORM(db.advertise)\n    form.vars.add_type="sell"\n    form.vars.status="open"\n    form.vars.ppl_bid=0\n   # form=form.process(next=\'index\')\n    my_extra_element = TR(LABEL(\'Category\'),SELECT(\'HostelHold\',\'Electronics\',\'Vehicles\', \'Others\',_name="cat_dropdown", value="HostelHold"))\n    form[0].insert(-1,my_extra_element)\n    form=form.process(onvalidation=enter_category)    \n    if form.accepted:\n        session.flash="Posted Successfully"\n        redirect(URL(\'index\'))\n    #db.advertise.post_date=request.now()\n    return locals()\n\ndef view_bidders():\n    query=(db.bidding.add_id==request.args(0)) & (db.advertise.id==request.args(0))\n    rows=db(db.advertise.id==request.args(0)).select()\n    bidder_rows=db(query).select()\n    bid_form=SQLFORM(db.bidding)\n    bid_form.vars.bidder_user_id=auth.user_id\n    bid_form.vars.bidder_user_fn=auth.user.first_name\n    bid_form.vars.bidder_user_ln=auth.user.last_name\n    bid_form.vars.bid_datetime=datetime.datetime.utcnow()\n    bid_form.vars.add_id=request.args(0,cast=int)\n    bid_form.process()\n    return locals()\n\ndef sell_to_buyer():\n    add_query=(db.advertise.id==request.args(1))\n    if mail:\n        bidder_rows=db(db.auth_user.id==request.args(0)).select()\n        itemName=db(add_query).select(item_name)\n        for i in itemName:\n            a=i.item_name\n        \n        for row in bidder_rows:\n            msg="We are glad to inform you that your bid for item " + a + " has been selected in IIIT marketplace."\n            x=mail.send(to=[row.email],subject="Congratulations!! Bid selected",message=msg)    \n    if x==True:\n        db(add_query).update(status=\'closed\')\n        db(add_query).update(sold_to=request.args(1))\n        response.flash = T("Email sent to user");\n    else:\n        response.flash= T("Mail not sent");\n        \n\n    return locals()\n\ndef view_Add():\n    #auth_user_with_role = db(db.auth_membership.group_id==request.vars.role).select(d\n    #rows=db(db.advertise.id==request.args(0)).select()\n    ############bidding_rows=db(db.bidding.add_id==request.args(0)).select()\n\n    query=(db.bidding.add_id==request.args(0)) & (db.advertise.id==request.args(0))\n    rows=db(db.advertise.id==request.args(0)).select()\n    bidder_rows=db(query).select()\n    bid_form=SQLFORM(db.bidding)\n    bid_form.vars.bidder_user_id=auth.user_id\n    bid_form.vars.bidder_user_fn=auth.user.first_name\n    bid_form.vars.bidder_user_ln=auth.user.last_name\n    bid_form.vars.bid_datetime=datetime.datetime.utcnow()\n    bid_form.vars.add_id=request.args(0,cast=int)\n    bid_form=bid_form.process()\n    if bid_form.accepted:\n        #session.flash="Bidded Successfully"\n        redirect(URL("view_Add",args=request.args(0)))\n    return locals()\n\n@auth.requires_login()\ndef index():\n\n   if len(request.args):\n        page=int(request.args[0])\n   else:\n        page=0\n   items_per_page=4\n   limitby=(page*items_per_page,(page+1)*items_per_page+1)\n   rows=db().select(db.advertise.ALL,limitby=limitby)\n   # response.flash = T("Welcome to web2py!")\n   return locals()\n    \ndef search_by_category():\n   if len(request.args):\n       page=int(request.args[0])\n   else:\n       page=0\n   items_per_page=10\n   limitby=(page*items_per_page,(page+1)*items_per_page+1)\n   if request.vars.category_value=="0":\n                rows=db(db.advertise).select()\n   else:\n                rows=db(db.advertise.category==request.vars.category_value).select(limitby=limitby)\n   return locals()\n        \ndef search_by_price():\n   if len(request.args):\n       page=int(request.args[0])\n   else:\n       page=0\n   items_per_page=10\n   limitby=(page*items_per_page,(page+1)*items_per_page+1)\n   if int(request.vars.filter_price)==0:\n                rows=db(db.advertise).select()\n   if int(request.vars.filter_price)==500:\n                rows=db(db.advertise.price < int(request.vars.filter_price)).select(limitby=limitby)\n   if int(request.vars.filter_price)==2000:\n                rows=db((db.advertise.price > 501) & (db.advertise.price < int(request.vars.filter_price))).select(limitby=limitby)\n   if int(request.vars.filter_price)==5000:\n                rows=db((db.advertise.price > 2001) & (db.advertise.price < int(request.vars.filter_price))).select(limitby=limitby)\n   if int(request.vars.filter_price)==5001:\n                rows=db(db.advertise.price > int(request.vars.filter_price)).select(limitby=limitby)\n   return locals()\n\ndef user():\n    """\n    exposes:\n    http://..../[app]/default/user/login\n    http://..../[app]/default/user/logout\n    http://..../[app]/default/user/register\n    http://..../[app]/default/user/profile\n    http://..../[app]/default/user/retrieve_password\n    http://..../[app]/default/user/change_password\n    http://..../[app]/default/user/manage_users (requires membership in\n    use @auth.requires_login()\n        @auth.requires_membership(\'group name\')\n        @auth.requires_permission(\'read\',\'table name\',record_id)\n    to decorate functions that need access control\n    """\n    return dict(form=auth())\n\n\n@cache.action()\ndef download():\n    """\n    allows downloading of uploaded files\n    http://..../[app]/default/download/[filename]\n    """\n    return response.download(request, db)\n\n\ndef call():\n    """\n    exposes services. for example:\n    http://..../[app]/default/call/jsonrpc\n    decorate with @services.jsonrpc the functions to expose\n    supports xml, json, xmlrpc, jsonrpc, amfrpc, rss, csv\n    """\n    return service()\n\n\n    \n\n@auth.requires_login() \ndef api():\n    """\n    this is example of API with access control\n    WEB2PY provides Hypermedia API (Collection+JSON) Experimental\n    """\n    from gluon.contrib.hypermedia import Collection\n    rules = {\n        \'<tablename>\': {\'GET\':{},\'POST\':{},\'PUT\':{},\'DELETE\':{}},\n        }\n    return Collection(db).process(request,response,rules)\n\nresponse._vars=response._caller(sell_to_buyer)\n'
p7
sS'snapshot'
p8
(dp9
sS'traceback'
p10
S'Traceback (most recent call last):\n  File "/home/rashmi/Desktop/SCEPrjct/web2py/gluon/restricted.py", line 224, in restricted\n    exec ccode in environment\n  File "/home/rashmi/Desktop/SCEPrjct/web2py/applications/IIIT_MarketPlace/controllers/default.py", line 181, in <module>\n  File "/home/rashmi/Desktop/SCEPrjct/web2py/gluon/globals.py", line 392, in <lambda>\n    self._caller = lambda f: f()\n  File "/home/rashmi/Desktop/SCEPrjct/web2py/applications/IIIT_MarketPlace/controllers/default.py", line 48, in sell_to_buyer\n    itemName=db(add_query).select(item_name)\nNameError: global name \'item_name\' is not defined\n'
p11
s.