(dp1
S'output'
p2
S"<type 'exceptions.NameError'> name 'session_id_name' is not defined"
p3
sS'layer'
p4
S'/home/namita/web2py/applications/IIIT_MarketPlace/views/default/view_Add.html'
p5
sS'code'
p6
S'left_sidebar_enabled,right_sidebar_enabled=False,(\'session\' in globals())\nresponse.write(\'\\n\', escape=False)\nresponse.write(\'<!DOCTYPE html PUBLIC "-//W3C//DTD XHTML 1.0 Strict//EN" "http://www.w3.org/TR/xhtml1/DTD/xhtml1-strict.dtd">\\n<!--\\n\\nDesign by Free CSS Templates\\nhttp://www.freecsstemplates.org\\nReleased for free under a Creative Commons Attribution 2.5 License\\n\\nTitle      : Simpletex\\nVersion    : 1.0\\nReleased   : 20070725\\nDescription: A two-column, fixed-width template with light color blend.\\n\\n-->\\n<html xmlns="http://www.w3.org/1999/xhtml">\\n <head>\\n  <title>\\n   \', escape=False)\nresponse.write(response.title or request.application)\nresponse.write(\'\\n  </title>\\n  \\n  \', escape=False)\nresponse.files.append(URL(request.application,\'static\',\'plugin_layouts/layouts/Simpletex/default.css\'))\nresponse.write(\'\\n  \', escape=False)\nresponse.files.append(URL(\'static\',\'plugin_layouts/superfish.js\'))\nresponse.write(\'\\n  \', escape=False)\nresponse.files.insert(0,URL(\'static\',\'js/jquery.js\'))\nresponse.files.insert(1,URL(\'static\',\'css/calendar.css\'))\nresponse.files.insert(2,URL(\'static\',\'js/calendar.js\'))\nresponse.files.insert(3,URL(\'static\',\'js/web2py.js\'))\nresponse.include_meta()\nresponse.include_files()\nresponse.write(\'\\n  <style>\\nul.web2py-menu-vertical { width: 150px; position: relative; top:1em; left:1em;  z-index:30; border:0; margin:0; padding: 0; list-style: none; text-decoration: none;}\\nul.web2py-menu-vertical li { margin:0; padding:0; border:0; width: 150px; background: black; text-align:left;}\\nul.web2py-menu-vertical li a { margin:0; padding: 1px 3px 1px 3px; border:0; width: 144px; color: white; font-size:12px;}\\ndiv.flash { position: fixed; float: right; padding: 10px; top: 10px; right: 30px; opacity: 0.75; margin: 10px 10px 10px 10px; text-align: center; clear: both; color: #fff; font-size: 11pt; text-align: center; vertical-align: middle; cursor: pointer; background: black; border: 2px solid #fff; -moz-border-radius: 5px; -webkit-border-radius: 5px; z-index: 2; }\\ndiv.error { background-color: red; color: white; padding: 3px; }\\n.auth_navbar { text-align:right; z-index:20; position: absolute; top: 2px; right:30px; border:0; padding:0 }\\n  </style>\\n </head>\\n <body>\\n  <!-- start header -->\\n  \', escape=False)\ntry:\n    response.write(auth.navbar(action=URL(\'default\',\'user\')))\nexcept:pass\nresponse.write(\'\\n\\n  <div id="header">\\n   <div id="logo">\\n       <img src="/IIIT_MarketPlace/static/images/IIIT_logo.jpeg" style="width: 240px; height: 100px">\\n   </div>\\n\\n  </div>\\n  <div id="menu">\\n      \\n   \', escape=False)\nresponse.write(MENU(response.menu,_class=\'web2py-menu\'))\nresponse.write(\'\\n         <div id="search">\\n    <form id="searchform" method="get" action="">\\n     <fieldset>\\n      <legend>\\n       Search\\n      </legend>\\n      <input id="searchinput" type="text" name="searchinput" value="" />\\n      <input id="searchsubmit" type="submit" value="Search" />\\n     </fieldset>\\n    </form>\\n   </div>\\n    <script>\\n      jQuery(document).ready(function(){jQuery(\\\'ul.web2py-menu\\\').superfish({delay:400});});\\n    </script>\\n  </div>\\n  <hr />\\n  <div id="page">\\n   <div id="content">\\n    <div class="flash">\', escape=False)\nresponse.write(response.flash or \'\')\nresponse.write(\'</div>\\n    \', escape=False)\nresponse.write(\'\\n\', escape=False)\nresponse.write(\'<script type="text/javascript"><!--\\n    // These variables are used by the web2py_ajax_init function in web2py_ajax.js (which is loaded below).\\n    var w2p_ajax_confirm_message = "\', escape=False)\nresponse.write(T(\'Are you sure you want to delete this object?\'))\nresponse.write(\'";\\n    var w2p_ajax_disable_with_message = "\', escape=False)\nresponse.write(T(\'Working...\'))\nresponse.write(\'";\\n    var w2p_ajax_date_format = "\', escape=False)\nresponse.write(T(\'%Y-%m-%d\'))\nresponse.write(\'";\\n    var w2p_ajax_datetime_format = "\', escape=False)\nresponse.write(T(\'%Y-%m-%d %H:%M:%S\'))\nresponse.write(\'";\\n    var ajax_error_500 = \\\'\', escape=False)\nresponse.write(T.M(\'An error occured, please [[reload %s]] the page\') % URL(args=request.args, vars=request.get_vars))\nresponse.write("\'\\n    //--></script>\\n", escape=False)\nresponse.files.insert(0,URL(\'static\',\'js/jquery.js\'))\nresponse.files.insert(1,URL(\'static\',\'css/calendar.css\'))\nresponse.files.insert(2,URL(\'static\',\'js/calendar.js\'))\nresponse.files.insert(3,URL(\'static\',\'js/web2py.js\'))\nresponse.include_meta()\nresponse.include_files()\nresponse.write(\'\\n\', escape=False)\nresponse.write(\'\\n\\n<head>\\n    <script>\\n$(document).ready(function(){\\n    $(".view_bids_class").hide()\\n  $(".view_bids_link").click(function(){\\n   $(".view_bids_class").show();\\n  });\\n});\\n</script>\\n    \\n</head>\\n\\n \\n   \\n\\n<div id="view_post">\\n    \', escape=False)\ni=1\nresponse.write(\'\\n\', escape=False)\nfor row in rows:\n    response.write(\'\\n    \', escape=False)\n    if i==1:\n        response.write(\'\\n    <div> <img src="\', escape=False)\n        response.write(URL(\'download\', args=row.advertise.item_img))\n        response.write(\'" /></div>\\n    <div class="view_post_title">Item:</div><div class="view_post_text">\', escape=False)\n        response.write(row.advertise.item_name)\n        response.write(\'</div>\\n    <div class="view_post_title">Category:</div><div class="view_post_text">\', escape=False)\n        response.write(row.advertise.category)\n        response.write(\'</div>\\n    <div class="view_post_title">Posted By:</div><div class="view_post_text">\', escape=False)\n        response.write(row.advertise.created_by.first_name)\n        response.write(\'</div>\\n    <div class="view_post_title">Price:</div><div class="view_post_text">\', escape=False)\n        response.write(row.advertise.price)\n        response.write(\'</div>\\n    <div class="view_post_title">Number of People Bidded:</div><div class="view_post_text">\', escape=False)\n        response.write(row.advertise.ppl_bid)\n        response.write(\'</div>\\n    \\n    <div id="user_info">\\n    <div class="user_info_title">Name:</div><div class="user_info_text">\', escape=False)\n        response.write(row.advertise.created_by.first_name)\n        response.write(\' \', escape=False)\n        response.write(row.advertise.created_by.last_name)\n        response.write(\'</div>\\n    <div class="user_info_title">Email address:</div><div class="user_info_text">\', escape=False)\n        response.write(row.advertise.created_by.email)\n        response.write(\'</div>\\n    <div class="user_info_title">contact No:</div><div class="user_info_text"></div>\\n</div>\\n    \\n    <div class="view_bids_link"><a href="#">View Bids \', escape=False)\n        response.write(session_id_name)\n        response.write(\'</a></div>\\n    \', escape=False)\n        pass\n    response.write(\'\\n    <div class="view_bids_class">Bidded By:\', escape=False)\n    response.write(row.bidding.bidder_name)\n    response.write(\' \', escape=False)\n    response.write(row.bidding.bid_datetime)\n    response.write(\' Bidded price:\', escape=False)\n    response.write(row.bidding.bid_price)\n    response.write(\'\\n     \', escape=False)\n    if i==len(rows):\n        response.write(\'\\n    <div class="bid_form_class"> \', escape=False)\n        response.write(bid_form)\n        response.write(\'</div>\\n     \', escape=False)\n        pass\n    response.write(\'\\n    </div>\\n\\n\\n\', escape=False)\n    i=i+1\n    response.write(\'\\n\', escape=False)\n    pass\nresponse.write(\'\\n</div>\\n\', escape=False)\nresponse.write(\'\\n   </div>\\n   <div id="sidebar">\\n    <ul>\\n     <li>\\n      <h2>\\n       Recent Updates\\n      </h2>\\n      <ul>\\n       <li>\\n        <h3>\\n         <span>\\n          6/25:\\n         </span>\\n         Semper vestibulum\\n        </h3>\\n        <p>\\n         <a href="#">\\n          In posuere eleifend odio quisque semper augue mattis wisi maecenas ligula&hellip;\\n         </a>\\n        </p>\\n       </li>\\n       <li>\\n        <h3>\\n         <span>\\n          6/21:\\n         </span>\\n         Posuere eleifend odio\\n        </h3>\\n        <p>\\n         <a href="#">\\n          Donec leo, vivamus fermentum nibh in augue praesent a lacus at urna congue rutrum&hellip;\\n         </a>\\n        </p>\\n       </li>\\n       <li>\\n        <h3>\\n         <span>\\n          6/17:\\n         </span>\\n         Vivamus fermentum\\n        </h3>\\n        <p>\\n         <a href="#">\\n          Quisque dictum integer nisl risus, sagittis convallis, rutrum id, congue, and nibh&hellip;\\n         </a>\\n        </p>\\n       </li>\\n      </ul>\\n     </li>\\n     <li>\\n      <h2>\\n       Sagittis Convallis\\n      </h2>\\n      <ul>\\n       <li>\\n        <a href="#">\\n         Ut semper vestibulum est\\n        </a>\\n       </li>\\n       <li>\\n        <a href="#">\\n         Vestibulum luctus venenatis dui\\n        </a>\\n       </li>\\n       <li>\\n        <a href="#">\\n         Integer rutrum nisl in mi\\n        </a>\\n       </li>\\n       <li>\\n        <a href="#">\\n         Etiam malesuada rutrum enim\\n        </a>\\n       </li>\\n       <li>\\n        <a href="#">\\n         Aenean elementum facilisis ligula\\n        </a>\\n       </li>\\n       <li>\\n        <a href="#">\\n         Ut tincidunt elit vitae augue\\n        </a>\\n       </li>\\n       <li>\\n        <a href="#">\\n         Sed quis odio sagittis leo vehicula\\n        </a>\\n       </li>\\n      </ul>\\n     </li>\\n    </ul>\\n   </div>\\n   <div style="clear: both;">\\n    &nbsp;\\n   </div>\\n  </div>\\n  <hr />\\n  <div id="footer">\\n   <p id="legal">\\n    Copyright &copy; 2007 Simpletex. All Rights Reserved | Designed by\\n    <a href="http://www.freecsstemplates.org/">\\n     Free CSS Templates\\n    </a>\\n   </p>\\n   <p id="links">\\n    <a href="#">\\n     Privacy Policy\\n    </a>\\n    |\\n    <a href="#">\\n     Terms of Use\\n    </a>\\n    |\\n    <a href="http://validator.w3.org/check/referer" title="This page validates as XHTML 1.0 Transitional">\\n     <abbr title="eXtensible HyperText Markup Language">\\n      XHTML\\n     </abbr>\\n    </a>\\n    |\\n    <a href="http://jigsaw.w3.org/css-validator/check/referer" title="This page validates as CSS">\\n     <abbr title="Cascading Style Sheets">\\n      CSS\\n     </abbr>\\n    </a>\\n   </p>\\n  </div>\\n </body>\\n</html>\\n\', escape=False)'
p7
sS'snapshot'
p8
(dp9
sS'traceback'
p10
S'Traceback (most recent call last):\n  File "/home/namita/web2py/gluon/restricted.py", line 224, in restricted\n    exec ccode in environment\n  File "/home/namita/web2py/applications/IIIT_MarketPlace/views/default/view_Add.html", line 69, in <module>\nNameError: name \'session_id_name\' is not defined\n'
p11
s.