(dp1
S'output'
p2
S"<type 'exceptions.NameError'> name 'items_per_page' is not defined"
p3
sS'layer'
p4
S'/home/namita/web2py/applications/IIIT_MarketPlace/views/default/search_by_price.html'
p5
sS'code'
p6
S'response.write(\'<script type="text/javascript"><!--\\n    // These variables are used by the web2py_ajax_init function in web2py_ajax.js (which is loaded below).\\n    var w2p_ajax_confirm_message = "\', escape=False)\nresponse.write(T(\'Are you sure you want to delete this object?\'))\nresponse.write(\'";\\n    var w2p_ajax_disable_with_message = "\', escape=False)\nresponse.write(T(\'Working...\'))\nresponse.write(\'";\\n    var w2p_ajax_date_format = "\', escape=False)\nresponse.write(T(\'%Y-%m-%d\'))\nresponse.write(\'";\\n    var w2p_ajax_datetime_format = "\', escape=False)\nresponse.write(T(\'%Y-%m-%d %H:%M:%S\'))\nresponse.write(\'";\\n    var ajax_error_500 = \\\'\', escape=False)\nresponse.write(T.M(\'An error occured, please [[reload %s]] the page\') % URL(args=request.args, vars=request.get_vars))\nresponse.write("\'\\n    //--></script>\\n", escape=False)\nresponse.files.insert(0,URL(\'static\',\'js/jquery.js\'))\nresponse.files.insert(1,URL(\'static\',\'css/calendar.css\'))\nresponse.files.insert(2,URL(\'static\',\'js/calendar.js\'))\nresponse.files.insert(3,URL(\'static\',\'js/web2py.js\'))\nresponse.include_meta()\nresponse.include_files()\nresponse.write(\'\\n\', escape=False)\nresponse.write(\'\\n<head>\\n    <style>\\n     .index_add {\\n         width: 700px;\\n         float: left;\\n         border: 1px solid black;\\n         padding: 5px;\\n     }\\n\\n     img {\\n         width: 200px;\\n         height: 200px;\\n         float:left;\\n     }\\n     .view_post_title {\\n         float: left;\\n     }\\n     .view_post_text {\\n         float: left;\\n     }\\n\\n     .space_div {\\n         width: 70px;\\n         height: 50px;\\n         float: left;\\n     }\\n\\n </style>\\n    <script>\\n$(document).ready(function(){\\n    \\n      $(\\\'#category_dd\\\').change(function() {\\n\\n           //  ajax("\', escape=False)\nresponse.write(URL(\'default\',\'view_Add\'))\nresponse.write(\'",[\\\'hi\\\'],\\\'target\\\');\\n             var category_value=$(\\\'#category_dd\\\').val();\\n        \\n          //window.location="\', escape=False)\nresponse.write(URL(\'default\',\'view_Add/18\'))\nresponse.write(\'"\\n$.ajax({\\n        type: "POST",\\n    url:"\', escape=False)\nresponse.write(URL(\'default\',\'search_by_category\'))\nresponse.write(\'",\\n    data:{category_value:category_value},\\n     success: function (data){\\n         \\n         $(\\\'#target\\\').html(data);\\n        },\\n    error: function(jqXHR, exception) {\\n            if (jqXHR.status === 0) {\\n                alert(\\\'Not connect.\\\\n Verify Network.\\\');\\n            } else if (jqXHR.status == 404) {\\n                alert(\\\'Requested page not found. [404]\\\');\\n            } else if (jqXHR.status == 500) {\\n                alert(\\\'Internal Server Error [500].\\\');\\n            } else if (exception === \\\'parsererror\\\') {\\n                alert(\\\'Requested JSON parse failed.\\\');\\n            } else if (exception === \\\'timeout\\\') {\\n                alert(\\\'Time out error.\\\');\\n            } else if (exception === \\\'abort\\\') {\\n                alert(\\\'Ajax request aborted.\\\');\\n            } else {\\n                alert(\\\'Uncaught Error.\\\\n\\\' + jqXHR.responseText);\\n            }\\n        }\\n      });\\n\\n});//end of select\\n    $(\\\'#filter_price\\\').change(function() {\\n           //  ajax("\', escape=False)\nresponse.write(URL(\'default\',\'view_Add\'))\nresponse.write(\'",[\\\'hi\\\'],\\\'target\\\');\\n             var filter_price=$(\\\'#filter_price\\\').val();\\n\\n$.ajax({\\n        type: "POST",\\n    url:"\', escape=False)\nresponse.write(URL(\'default\',\'search_by_price\'))\nresponse.write(\'",\\n    data:{filter_price:filter_price},\\n     success: function (data){\\n         $(\\\'#target\\\').html(data);\\n        },\\n    error: function(jqXHR, exception) {\\n            if (jqXHR.status === 0) {\\n                alert(\\\'Not connect.\\\\n Verify Network.\\\');\\n            } else if (jqXHR.status == 404) {\\n                alert(\\\'Requested page not found. [404]\\\');\\n            } else if (jqXHR.status == 500) {\\n                alert(\\\'Internal Server Error [500].\\\');\\n            } else if (exception === \\\'parsererror\\\') {\\n                alert(\\\'Requested JSON parse failed.\\\');\\n            } else if (exception === \\\'timeout\\\') {\\n                alert(\\\'Time out error.\\\');\\n            } else if (exception === \\\'abort\\\') {\\n                alert(\\\'Ajax request aborted.\\\');\\n            } else {\\n                alert(\\\'Uncaught Error.\\\\n\\\' + jqXHR.responseText);\\n            }\\n        }\\n});\\n      });//select\\n});\\n    </script>\\n\\n</head>\\n\', escape=False)\nfor i,row in enumerate(rows):\n    response.write(\'\\n \', escape=False)\n    if i==items_per_page: break\n    response.write(\'\\n<a href="\', escape=False)\n    response.write(URL(\'view_Add.html\',args=[row.id]))\n    response.write(\'">\\n<div class="index_add" id="target">\\n    <img src="\', escape=False)\n    response.write(URL(\'download\', args=row.item_img))\n    response.write(\'" />\\n    <div class="space_div"></div>\\n    <div class="view_post_title">Item:</div><div class="view_post_text">\', escape=False)\n    response.write(row.item_name)\n    response.write(\'</div><br>\\n    <div class="view_post_title">Posted By:</div><div class="view_post_text">\', escape=False)\n    response.write(row.created_by.first_name)\n    response.write(\'</div><br>\\n    <div class="view_post_title">Price:</div><div class="view_post_text">\', escape=False)\n    response.write(row.price)\n    response.write(\'</div><br>\\n    </div></a><br><br>\\n     <div class="space_div"></div>\\n\', escape=False)\n    pass\nresponse.write(\'\\n</div>\\n\', escape=False)'
p7
sS'snapshot'
p8
(dp9
S'exception'
p10
(dp11
S'__hash__'
p12
S"<method-wrapper '__hash__' of exceptions.NameError object>"
p13
sS'__setattr__'
p14
S"<method-wrapper '__setattr__' of exceptions.NameError object>"
p15
sS'__reduce_ex__'
p16
S'<built-in method __reduce_ex__ of exceptions.NameError object>'
p17
sS'__getslice__'
p18
S"<method-wrapper '__getslice__' of exceptions.NameError object>"
p19
sS'__getitem__'
p20
S"<method-wrapper '__getitem__' of exceptions.NameError object>"
p21
sS'__setstate__'
p22
S'<built-in method __setstate__ of exceptions.NameError object>'
p23
sS'args'
p24
S'("name \'items_per_page\' is not defined",)'
p25
sS'__reduce__'
p26
S'<built-in method __reduce__ of exceptions.NameError object>'
p27
sS'__str__'
p28
S"<method-wrapper '__str__' of exceptions.NameError object>"
p29
sS'__format__'
p30
S'<built-in method __format__ of exceptions.NameError object>'
p31
sS'__getattribute__'
p32
S"<method-wrapper '__getattribute__' of exceptions.NameError object>"
p33
sS'__class__'
p34
S"<type 'exceptions.NameError'>"
p35
sS'__unicode__'
p36
S'<built-in method __unicode__ of exceptions.NameError object>'
p37
sS'__delattr__'
p38
S"<method-wrapper '__delattr__' of exceptions.NameError object>"
p39
sS'__subclasshook__'
p40
S'<built-in method __subclasshook__ of type object>'
p41
sS'__repr__'
p42
S"<method-wrapper '__repr__' of exceptions.NameError object>"
p43
sS'__dict__'
p44
S'{}'
p45
sS'__sizeof__'
p46
S'<built-in method __sizeof__ of exceptions.NameError object>'
p47
sS'__doc__'
p48
S"'Name not found globally.'"
p49
sS'__init__'
p50
S"<method-wrapper '__init__' of exceptions.NameError object>"
p51
sS'__new__'
p52
S'<built-in method __new__ of type object>'
p53
ssS'evalue'
p54
S"name 'items_per_page' is not defined"
p55
sS'request'
p56
cgluon.html
XML_unpickle
p57
(S's+c\x00\x00<div><table><tr><td style="font-weight:bold;vertical-align:top;">ajax</td><td style="vertical-align:top;">:</td><td><div>True</div></td></tr><tr><td style="font-weight:bold;vertical-align:top;">application</td><td style="vertical-align:top;">:</td><td><div>IIIT_MarketPlace</div></td></tr><tr><td style="font-weight:bold;vertical-align:top;">args</td><td style="vertical-align:top;">:</td><td><div><table></table></div></td></tr><tr><td style="font-weight:bold;vertical-align:top;">cid</td><td style="vertical-align:top;">:</td><td><div>None</div></td></tr><tr><td style="font-weight:bold;vertical-align:top;">client</td><td style="vertical-align:top;">:</td><td><div>127.0.0.1</div></td></tr><tr><td style="font-weight:bold;vertical-align:top;">controller</td><td style="vertical-align:top;">:</td><td><div>default</div></td></tr><tr><td style="font-weight:bold;vertical-align:top;">cookies</td><td style="vertical-align:top;">:</td><td><div><table><tr><td style="font-weight:bold;vertical-align:top;">session_id_admin</td><td style="vertical-align:top;">:</td><td><div>127.0.0.1-dd00c135-5c05-486a-8046-d4da3900dccc<table><tr><td style="font-weight:bold;vertical-align:top;">comment</td><td style="vertical-align:top;">:</td><td><div></div></td></tr><tr><td style="font-weight:bold;vertical-align:top;">domain</td><td style="vertical-align:top;">:</td><td><div></div></td></tr><tr><td style="font-weight:bold;vertical-align:top;">expires</td><td style="vertical-align:top;">:</td><td><div></div></td></tr><tr><td style="font-weight:bold;vertical-align:top;">httponly</td><td style="vertical-align:top;">:</td><td><div></div></td></tr><tr><td style="font-weight:bold;vertical-align:top;">max-age</td><td style="vertical-align:top;">:</td><td><div></div></td></tr><tr><td style="font-weight:bold;vertical-align:top;">path</td><td style="vertical-align:top;">:</td><td><div></div></td></tr><tr><td style="font-weight:bold;vertical-align:top;">secure</td><td style="vertical-align:top;">:</td><td><div></div></td></tr><tr><td style="font-weight:bold;vertical-align:top;">version</td><td style="vertical-align:top;">:</td><td><div></div></td></tr></table></div></td></tr><tr><td style="font-weight:bold;vertical-align:top;">session_id_iiit_marketplace</td><td style="vertical-align:top;">:</td><td><div>127.0.0.1-7e3234af-5ff6-4049-b5c3-305e549355c3<table><tr><td style="font-weight:bold;vertical-align:top;">comment</td><td style="vertical-align:top;">:</td><td><div></div></td></tr><tr><td style="font-weight:bold;vertical-align:top;">domain</td><td style="vertical-align:top;">:</td><td><div></div></td></tr><tr><td style="font-weight:bold;vertical-align:top;">expires</td><td style="vertical-align:top;">:</td><td><div></div></td></tr><tr><td style="font-weight:bold;vertical-align:top;">httponly</td><td style="vertical-align:top;">:</td><td><div></div></td></tr><tr><td style="font-weight:bold;vertical-align:top;">max-age</td><td style="vertical-align:top;">:</td><td><div></div></td></tr><tr><td style="font-weight:bold;vertical-align:top;">path</td><td style="vertical-align:top;">:</td><td><div></div></td></tr><tr><td style="font-weight:bold;vertical-align:top;">secure</td><td style="vertical-align:top;">:</td><td><div></div></td></tr><tr><td style="font-weight:bold;vertical-align:top;">version</td><td style="vertical-align:top;">:</td><td><div></div></td></tr></table></div></td></tr><tr><td style="font-weight:bold;vertical-align:top;">session_id_welcome</td><td style="vertical-align:top;">:</td><td><div>127.0.0.1-37159dba-636e-4c55-9a07-6cc62f8aa414<table><tr><td style="font-weight:bold;vertical-align:top;">comment</td><td style="vertical-align:top;">:</td><td><div></div></td></tr><tr><td style="font-weight:bold;vertical-align:top;">domain</td><td style="vertical-align:top;">:</td><td><div></div></td></tr><tr><td style="font-weight:bold;vertical-align:top;">expires</td><td style="vertical-align:top;">:</td><td><div></div></td></tr><tr><td style="font-weight:bold;vertical-align:top;">httponly</td><td style="vertical-align:top;">:</td><td><div></div></td></tr><tr><td style="font-weight:bold;vertical-align:top;">max-age</td><td style="vertical-align:top;">:</td><td><div></div></td></tr><tr><td style="font-weight:bold;vertical-align:top;">path</td><td style="vertical-align:top;">:</td><td><div></div></td></tr><tr><td style="font-weight:bold;vertical-align:top;">secure</td><td style="vertical-align:top;">:</td><td><div></div></td></tr><tr><td style="font-weight:bold;vertical-align:top;">version</td><td style="vertical-align:top;">:</td><td><div></div></td></tr></table></div></td></tr></table></div></td></tr><tr><td style="font-weight:bold;vertical-align:top;">env</td><td style="vertical-align:top;">:</td><td><div><table><tr><td style="font-weight:bold;vertical-align:top;">CONTENT_LENGTH</td><td style="vertical-align:top;">:</td><td><div>16</div></td></tr><tr><td style="font-weight:bold;vertical-align:top;">CONTENT_TYPE</td><td style="vertical-align:top;">:</td><td><div>application/x-www-form-urlencoded; charset=UTF-8</div></td></tr><tr><td style="font-weight:bold;vertical-align:top;">HTTP_ACCEPT</td><td style="vertical-align:top;">:</td><td><div>*/*</div></td></tr><tr><td style="font-weight:bold;vertical-align:top;">HTTP_ACCEPT_ENCODING</td><td style="vertical-align:top;">:</td><td><div>gzip, deflate</div></td></tr><tr><td style="font-weight:bold;vertical-align:top;">HTTP_ACCEPT_LANGUAGE</td><td style="vertical-align:top;">:</td><td><div>en-US,en;q=0.5</div></td></tr><tr><td style="font-weight:bold;vertical-align:top;">HTTP_CACHE_CONTROL</td><td style="vertical-align:top;">:</td><td><div>no-cache</div></td></tr><tr><td style="font-weight:bold;vertical-align:top;">HTTP_CONNECTION</td><td style="vertical-align:top;">:</td><td><div>keep-alive</div></td></tr><tr><td style="font-weight:bold;vertical-align:top;">HTTP_CONTENT_LENGTH</td><td style="vertical-align:top;">:</td><td><div>16</div></td></tr><tr><td style="font-weight:bold;vertical-align:top;">HTTP_CONTENT_TYPE</td><td style="vertical-align:top;">:</td><td><div>application/x-www-form-urlencoded; charset=UTF-8</div></td></tr><tr><td style="font-weight:bold;vertical-align:top;">HTTP_COOKIE</td><td style="vertical-align:top;">:</td><td><div>session_id_welcome=127.0.0.1-37159dba-636e-4c55-9a07-6cc62f8aa414; session_id_admin=127.0.0.1-dd00c135-5c05-486a-8046-d4da3900dccc; session_id_iiit_marketplace=127.0.0.1-7e3234af-5ff6-4049-b5c3-305e549355c3</div></td></tr><tr><td style="font-weight:bold;vertical-align:top;">HTTP_HOST</td><td style="vertical-align:top;">:</td><td><div>127.0.0.1:8000</div></td></tr><tr><td style="font-weight:bold;vertical-align:top;">HTTP_PRAGMA</td><td style="vertical-align:top;">:</td><td><div>no-cache</div></td></tr><tr><td style="font-weight:bold;vertical-align:top;">HTTP_REFERER</td><td style="vertical-align:top;">:</td><td><div>http://127.0.0.1:8000/IIIT_MarketPlace/default/</div></td></tr><tr><td style="font-weight:bold;vertical-align:top;">HTTP_USER_AGENT</td><td style="vertical-align:top;">:</td><td><div>Mozilla/5.0 (X11; Ubuntu; Linux x86_64; rv:28.0) Gecko/20100101 Firefox/28.0</div></td></tr><tr><td style="font-weight:bold;vertical-align:top;">HTTP_X_REQUESTED_WITH</td><td style="vertical-align:top;">:</td><td><div>XMLHttpRequest</div></td></tr><tr><td style="font-weight:bold;vertical-align:top;">PATH_INFO</td><td style="vertical-align:top;">:</td><td><div>/IIIT_MarketPlace/default/search_by_price</div></td></tr><tr><td style="font-weight:bold;vertical-align:top;">QUERY_STRING</td><td style="vertical-align:top;">:</td><td><div></div></td></tr><tr><td style="font-weight:bold;vertical-align:top;">REMOTE_ADDR</td><td style="vertical-align:top;">:</td><td><div>127.0.0.1</div></td></tr><tr><td style="font-weight:bold;vertical-align:top;">REMOTE_PORT</td><td style="vertical-align:top;">:</td><td><div>40794</div></td></tr><tr><td style="font-weight:bold;vertical-align:top;">REQUEST_METHOD</td><td style="vertical-align:top;">:</td><td><div>POST</div></td></tr><tr><td style="font-weight:bold;vertical-align:top;">SCRIPT_NAME</td><td style="vertical-align:top;">:</td><td><div></div></td></tr><tr><td style="font-weight:bold;vertical-align:top;">SERVER_NAME</td><td style="vertical-align:top;">:</td><td><div>Namita</div></td></tr><tr><td style="font-weight:bold;vertical-align:top;">SERVER_PORT</td><td style="vertical-align:top;">:</td><td><div>8000</div></td></tr><tr><td style="font-weight:bold;vertical-align:top;">SERVER_PROTOCOL</td><td style="vertical-align:top;">:</td><td><div>HTTP/1.1</div></td></tr><tr><td style="font-weight:bold;vertical-align:top;">SERVER_SOFTWARE</td><td style="vertical-align:top;">:</td><td><div>Rocket 1.2.6</div></td></tr><tr><td style="font-weight:bold;vertical-align:top;">app_folders</td><td style="vertical-align:top;">:</td><td><div>set([&#x27;/home/namita/web2py/applications/admin/&#x27;, &#x27;/home/namita/web2py/applications/IIIT_MarketPlace/&#x27;, &#x27;/home/namita/web2py/applications/welcome/&#x27;])</div></td></tr><tr><td style="font-weight:bold;vertical-align:top;">applications_parent</td><td style="vertical-align:top;">:</td><td><div>/home/namita/web2py</div></td></tr><tr><td style="font-weight:bold;vertical-align:top;">cmd_args</td><td style="vertical-align:top;">:</td><td><div><table></table></div></td></tr><tr><td style="font-weight:bold;vertical-align:top;">cmd_options</td><td style="vertical-align:top;">:</td><td><div>&lt;Values at 0x7fc71ece1e18: {&#x27;verbose&#x27;: False, &#x27;ip&#x27;: &#x27;127.0.0.1&#x27;, &#x27;debuglevel&#x27;: 30, &#x27;with_scheduler&#x27;: False, &#x27;ips&#x27;: [&#x27;127.0.1.1&#x27;], &#x27;shutdown_timeout&#x27;: 5, &#x27;taskbar&#x27;: False, &#x27;with_coverage&#x27;: False, &#x27;scheduler_groups&#x27;: None, &#x27;port&#x27;: 8000, &#x27;maxthreads&#x27;: None, &#x27;softcron&#x27;: False, &#x27;server_name&#x27;: &#x27;Namita&#x27;, &#x27;bpython&#x27;: False, &#x27;nogui&#x27;: True, &#x27;pid_filename&#x27;: &#x27;httpserver.pid&#x27;, &#x27;extcron&#x27;: False, &#x27;runcron&#x27;: False, &#x27;run_system_tests&#x27;: False, &#x27;test&#x27;: None, &#x27;folder&#x27;: &#x27;/home/namita/web2py&#x27;, &#x27;config&#x27;: &#x27;&#x27;, &#x27;minthreads&#x27;: None, &#x27;shell&#x27;: None, &#x27;run&#x27;: &#x27;&#x27;, &#x27;log_filename&#x27;: &#x27;httpserver.log&#x27;, &#x27;profiler_dir&#x27;: None, &#x27;args&#x27;: [&#x27;&#x27;], &#x27;socket_timeout&#x27;: 5, &#x27;ssl_ca_certificate&#x27;: None, &#x27;scheduler&#x27;: None, &#x27;interfaces&#x27;: None, &#x27;ssl_private_key&#x27;: &#x27;&#x27;, &#x27;gae&#x27;: None, &#x27;password&#x27;: &#x27;Namita&#x27;, &#x27;request_queue_size&#x27;: 5, &#x27;ssl_certificate&#x27;: &#x27;&#x27;, &#x27;cronjob&#x27;: False, &#x27;numthreads&#x27;: None, &#x27;quiet&#x27;: False, &#x27;import_models&#x27;: False, &#x27;timeout&#x27;: 10, &#x27;plain&#x27;: False, &#x27;nobanner&#x27;: False}&gt;</div></td></tr><tr><td style="font-weight:bold;vertical-align:top;">content_length</td><td style="vertical-align:top;">:</td><td><div>16</div></td></tr><tr><td style="font-weight:bold;vertical-align:top;">content_type</td><td style="vertical-align:top;">:</td><td><div>application/x-www-form-urlencoded; charset=UTF-8</div></td></tr><tr><td style="font-weight:bold;vertical-align:top;">db_sessions</td><td style="vertical-align:top;">:</td><td><div>set([])</div></td></tr><tr><td style="font-weight:bold;vertical-align:top;">debugging</td><td style="vertical-align:top;">:</td><td><div>True</div></td></tr><tr><td style="font-weight:bold;vertical-align:top;">gluon_parent</td><td style="vertical-align:top;">:</td><td><div>/home/namita/web2py</div></td></tr><tr><td style="font-weight:bold;vertical-align:top;">http_accept</td><td style="vertical-align:top;">:</td><td><div>*/*</div></td></tr><tr><td style="font-weight:bold;vertical-align:top;">http_accept_encoding</td><td style="vertical-align:top;">:</td><td><div>gzip, deflate</div></td></tr><tr><td style="font-weight:bold;vertical-align:top;">http_accept_language</td><td style="vertical-align:top;">:</td><td><div>en-US,en;q=0.5</div></td></tr><tr><td style="font-weight:bold;vertical-align:top;">http_cache_control</td><td style="vertical-align:top;">:</td><td><div>no-cache</div></td></tr><tr><td style="font-weight:bold;vertical-align:top;">http_connection</td><td style="vertical-align:top;">:</td><td><div>keep-alive</div></td></tr><tr><td style="font-weight:bold;vertical-align:top;">http_content_length</td><td style="vertical-align:top;">:</td><td><div>16</div></td></tr><tr><td style="font-weight:bold;vertical-align:top;">http_content_type</td><td style="vertical-align:top;">:</td><td><div>application/x-www-form-urlencoded; charset=UTF-8</div></td></tr><tr><td style="font-weight:bold;vertical-align:top;">http_cookie</td><td style="vertical-align:top;">:</td><td><div>session_id_welcome=127.0.0.1-37159dba-636e-4c55-9a07-6cc62f8aa414; session_id_admin=127.0.0.1-dd00c135-5c05-486a-8046-d4da3900dccc; session_id_iiit_marketplace=127.0.0.1-7e3234af-5ff6-4049-b5c3-305e549355c3</div></td></tr><tr><td style="font-weight:bold;vertical-align:top;">http_host</td><td style="vertical-align:top;">:</td><td><div>127.0.0.1:8000</div></td></tr><tr><td style="font-weight:bold;vertical-align:top;">http_pragma</td><td style="vertical-align:top;">:</td><td><div>no-cache</div></td></tr><tr><td style="font-weight:bold;vertical-align:top;">http_referer</td><td style="vertical-align:top;">:</td><td><div>http://127.0.0.1:8000/IIIT_MarketPlace/default/</div></td></tr><tr><td style="font-weight:bold;vertical-align:top;">http_user_agent</td><td style="vertical-align:top;">:</td><td><div>Mozilla/5.0 (X11; Ubuntu; Linux x86_64; rv:28.0) Gecko/20100101 Firefox/28.0</div></td></tr><tr><td style="font-weight:bold;vertical-align:top;">http_x_requested_with</td><td style="vertical-align:top;">:</td><td><div>XMLHttpRequest</div></td></tr><tr><td style="font-weight:bold;vertical-align:top;">is_jython</td><td style="vertical-align:top;">:</td><td><div>False</div></td></tr><tr><td style="font-weight:bold;vertical-align:top;">is_pypy</td><td style="vertical-align:top;">:</td><td><div>False</div></td></tr><tr><td style="font-weight:bold;vertical-align:top;">is_source</td><td style="vertical-align:top;">:</td><td><div>True</div></td></tr><tr><td style="font-weight:bold;vertical-align:top;">local_hosts</td><td style="vertical-align:top;">:</td><td><div><table><tr><td><div>::1</div></td></tr><tr><td><div>127.0.1.1</div></td></tr><tr><td><div>Namita</div></td></tr><tr><td><div>::ffff:127.0.0.1</div></td></tr><tr><td><div>127.0.0.1</div></td></tr></table></div></td></tr><tr><td style="font-weight:bold;vertical-align:top;">path_info</td><td style="vertical-align:top;">:</td><td><div>/IIIT_MarketPlace/default/search_by_price</div></td></tr><tr><td style="font-weight:bold;vertical-align:top;">query_string</td><td style="vertical-align:top;">:</td><td><div></div></td></tr><tr><td style="font-weight:bold;vertical-align:top;">remote_addr</td><td style="vertical-align:top;">:</td><td><div>127.0.0.1</div></td></tr><tr><td style="font-weight:bold;vertical-align:top;">remote_port</td><td style="vertical-align:top;">:</td><td><div>40794</div></td></tr><tr><td style="font-weight:bold;vertical-align:top;">request_method</td><td style="vertical-align:top;">:</td><td><div>POST</div></td></tr><tr><td style="font-weight:bold;vertical-align:top;">request_uri</td><td style="vertical-align:top;">:</td><td><div>/IIIT_MarketPlace/default/search_by_price</div></td></tr><tr><td style="font-weight:bold;vertical-align:top;">script_name</td><td style="vertical-align:top;">:</td><td><div></div></td></tr><tr><td style="font-weight:bold;vertical-align:top;">server_name</td><td style="vertical-align:top;">:</td><td><div>Namita</div></td></tr><tr><td style="font-weight:bold;vertical-align:top;">server_port</td><td style="vertical-align:top;">:</td><td><div>8000</div></td></tr><tr><td style="font-weight:bold;vertical-align:top;">server_protocol</td><td style="vertical-align:top;">:</td><td><div>HTTP/1.1</div></td></tr><tr><td style="font-weight:bold;vertical-align:top;">server_software</td><td style="vertical-align:top;">:</td><td><div>Rocket 1.2.6</div></td></tr><tr><td style="font-weight:bold;vertical-align:top;">web2py_path</td><td style="vertical-align:top;">:</td><td><div>/home/namita/web2py</div></td></tr><tr><td style="font-weight:bold;vertical-align:top;">web2py_version</td><td style="vertical-align:top;">:</td><td><div>2.9.11-stable+timestamp.2014.09.15.23.35.11</div></td></tr><tr><td style="font-weight:bold;vertical-align:top;">wsgi.errors</td><td style="vertical-align:top;">:</td><td><div>&lt;open file &#x27;&lt;stderr&gt;&#x27;, mode &#x27;w&#x27; at 0x7fc7235901e0&gt;</div></td></tr><tr><td style="font-weight:bold;vertical-align:top;">wsgi.file_wrapper</td><td style="vertical-align:top;">:</td><td><div>&lt;class wsgiref.util.FileWrapper at 0x7fc71ecda328&gt;</div></td></tr><tr><td style="font-weight:bold;vertical-align:top;">wsgi.input</td><td style="vertical-align:top;">:</td><td><div>&lt;socket._fileobject object at 0x7fc6eb115f50&gt;</div></td></tr><tr><td style="font-weight:bold;vertical-align:top;">wsgi.multiprocess</td><td style="vertical-align:top;">:</td><td><div>False</div></td></tr><tr><td style="font-weight:bold;vertical-align:top;">wsgi.multithread</td><td style="vertical-align:top;">:</td><td><div>True</div></td></tr><tr><td style="font-weight:bold;vertical-align:top;">wsgi.run_once</td><td style="vertical-align:top;">:</td><td><div>False</div></td></tr><tr><td style="font-weight:bold;vertical-align:top;">wsgi.url_scheme</td><td style="vertical-align:top;">:</td><td><div>http</div></td></tr><tr><td style="font-weight:bold;vertical-align:top;">wsgi.version</td><td style="vertical-align:top;">:</td><td><div><table><tr><td><div>1</div></td></tr><tr><td><div>0</div></td></tr></table></div></td></tr><tr><td style="font-weight:bold;vertical-align:top;">wsgi_errors</td><td style="vertical-align:top;">:</td><td><div>&lt;open file &#x27;&lt;stderr&gt;&#x27;, mode &#x27;w&#x27; at 0x7fc7235901e0&gt;</div></td></tr><tr><td style="font-weight:bold;vertical-align:top;">wsgi_file_wrapper</td><td style="vertical-align:top;">:</td><td><div>&lt;class wsgiref.util.FileWrapper at 0x7fc71ecda328&gt;</div></td></tr><tr><td style="font-weight:bold;vertical-align:top;">wsgi_input</td><td style="vertical-align:top;">:</td><td><div>&lt;socket._fileobject object at 0x7fc6eb115f50&gt;</div></td></tr><tr><td style="font-weight:bold;vertical-align:top;">wsgi_multiprocess</td><td style="vertical-align:top;">:</td><td><div>False</div></td></tr><tr><td style="font-weight:bold;vertical-align:top;">wsgi_multithread</td><td style="vertical-align:top;">:</td><td><div>True</div></td></tr><tr><td style="font-weight:bold;vertical-align:top;">wsgi_run_once</td><td style="vertical-align:top;">:</td><td><div>False</div></td></tr><tr><td style="font-weight:bold;vertical-align:top;">wsgi_url_scheme</td><td style="vertical-align:top;">:</td><td><div>http</div></td></tr><tr><td style="font-weight:bold;vertical-align:top;">wsgi_version</td><td style="vertical-align:top;">:</td><td><div><table><tr><td><div>1</div></td></tr><tr><td><div>0</div></td></tr></table></div></td></tr></table></div></td></tr><tr><td style="font-weight:bold;vertical-align:top;">extension</td><td style="vertical-align:top;">:</td><td><div>html</div></td></tr><tr><td style="font-weight:bold;vertical-align:top;">folder</td><td style="vertical-align:top;">:</td><td><div>/home/namita/web2py/applications/IIIT_MarketPlace/</div></td></tr><tr><td style="font-weight:bold;vertical-align:top;">function</td><td style="vertical-align:top;">:</td><td><div>search_by_price</div></td></tr><tr><td style="font-weight:bold;vertical-align:top;">global_settings</td><td style="vertical-align:top;">:</td><td><div><table><tr><td style="font-weight:bold;vertical-align:top;">app_folders</td><td style="vertical-align:top;">:</td><td><div>set([&#x27;/home/namita/web2py/applications/admin/&#x27;, &#x27;/home/namita/web2py/applications/IIIT_MarketPlace/&#x27;, &#x27;/home/namita/web2py/applications/welcome/&#x27;])</div></td></tr><tr><td style="font-weight:bold;vertical-align:top;">applications_parent</td><td style="vertical-align:top;">:</td><td><div>/home/namita/web2py</div></td></tr><tr><td style="font-weight:bold;vertical-align:top;">cmd_args</td><td style="vertical-align:top;">:</td><td><div><table></table></div></td></tr><tr><td style="font-weight:bold;vertical-align:top;">cmd_options</td><td style="vertical-align:top;">:</td><td><div>&lt;Values at 0x7fc71ece1e18: {&#x27;verbose&#x27;: False, &#x27;ip&#x27;: &#x27;127.0.0.1&#x27;, &#x27;debuglevel&#x27;: 30, &#x27;with_scheduler&#x27;: False, &#x27;ips&#x27;: [&#x27;127.0.1.1&#x27;], &#x27;shutdown_timeout&#x27;: 5, &#x27;taskbar&#x27;: False, &#x27;with_coverage&#x27;: False, &#x27;scheduler_groups&#x27;: None, &#x27;port&#x27;: 8000, &#x27;maxthreads&#x27;: None, &#x27;softcron&#x27;: False, &#x27;server_name&#x27;: &#x27;Namita&#x27;, &#x27;bpython&#x27;: False, &#x27;nogui&#x27;: True, &#x27;pid_filename&#x27;: &#x27;httpserver.pid&#x27;, &#x27;extcron&#x27;: False, &#x27;runcron&#x27;: False, &#x27;run_system_tests&#x27;: False, &#x27;test&#x27;: None, &#x27;folder&#x27;: &#x27;/home/namita/web2py&#x27;, &#x27;config&#x27;: &#x27;&#x27;, &#x27;minthreads&#x27;: None, &#x27;shell&#x27;: None, &#x27;run&#x27;: &#x27;&#x27;, &#x27;log_filename&#x27;: &#x27;httpserver.log&#x27;, &#x27;profiler_dir&#x27;: None, &#x27;args&#x27;: [&#x27;&#x27;], &#x27;socket_timeout&#x27;: 5, &#x27;ssl_ca_certificate&#x27;: None, &#x27;scheduler&#x27;: None, &#x27;interfaces&#x27;: None, &#x27;ssl_private_key&#x27;: &#x27;&#x27;, &#x27;gae&#x27;: None, &#x27;password&#x27;: &#x27;Namita&#x27;, &#x27;request_queue_size&#x27;: 5, &#x27;ssl_certificate&#x27;: &#x27;&#x27;, &#x27;cronjob&#x27;: False, &#x27;numthreads&#x27;: None, &#x27;quiet&#x27;: False, &#x27;import_models&#x27;: False, &#x27;timeout&#x27;: 10, &#x27;plain&#x27;: False, &#x27;nobanner&#x27;: False}&gt;</div></td></tr><tr><td style="font-weight:bold;vertical-align:top;">db_sessions</td><td style="vertical-align:top;">:</td><td><div>set([])</div></td></tr><tr><td style="font-weight:bold;vertical-align:top;">debugging</td><td style="vertical-align:top;">:</td><td><div>True</div></td></tr><tr><td style="font-weight:bold;vertical-align:top;">gluon_parent</td><td style="vertical-align:top;">:</td><td><div>/home/namita/web2py</div></td></tr><tr><td style="font-weight:bold;vertical-align:top;">is_jython</td><td style="vertical-align:top;">:</td><td><div>False</div></td></tr><tr><td style="font-weight:bold;vertical-align:top;">is_pypy</td><td style="vertical-align:top;">:</td><td><div>False</div></td></tr><tr><td style="font-weight:bold;vertical-align:top;">is_source</td><td style="vertical-align:top;">:</td><td><div>True</div></td></tr><tr><td style="font-weight:bold;vertical-align:top;">local_hosts</td><td style="vertical-align:top;">:</td><td><div><table><tr><td><div>::1</div></td></tr><tr><td><div>127.0.1.1</div></td></tr><tr><td><div>Namita</div></td></tr><tr><td><div>::ffff:127.0.0.1</div></td></tr><tr><td><div>127.0.0.1</div></td></tr></table></div></td></tr><tr><td style="font-weight:bold;vertical-align:top;">web2py_version</td><td style="vertical-align:top;">:</td><td><div>2.9.11-stable+timestamp.2014.09.15.23.35.11</div></td></tr></table></div></td></tr><tr><td style="font-weight:bold;vertical-align:top;">is_https</td><td style="vertical-align:top;">:</td><td><div>False</div></td></tr><tr><td style="font-weight:bold;vertical-align:top;">is_local</td><td style="vertical-align:top;">:</td><td><div>True</div></td></tr><tr><td style="font-weight:bold;vertical-align:top;">is_restful</td><td style="vertical-align:top;">:</td><td><div>False</div></td></tr><tr><td style="font-weight:bold;vertical-align:top;">is_sheduler</td><td style="vertical-align:top;">:</td><td><div>None</div></td></tr><tr><td style="font-weight:bold;vertical-align:top;">is_shell</td><td style="vertical-align:top;">:</td><td><div>None</div></td></tr><tr><td style="font-weight:bold;vertical-align:top;">now</td><td style="vertical-align:top;">:</td><td><div>datetime.datetime(2014, 11, 19, 12, 57, 57, 758519)</div></td></tr><tr><td style="font-weight:bold;vertical-align:top;">raw_args</td><td style="vertical-align:top;">:</td><td><div></div></td></tr><tr><td style="font-weight:bold;vertical-align:top;">raw_extension</td><td style="vertical-align:top;">:</td><td><div>None</div></td></tr><tr><td style="font-weight:bold;vertical-align:top;">url</td><td style="vertical-align:top;">:</td><td><div>/IIIT_MarketPlace/default/search_by_price</div></td></tr><tr><td style="font-weight:bold;vertical-align:top;">utcnow</td><td style="vertical-align:top;">:</td><td><div>datetime.datetime(2014, 11, 19, 7, 27, 57, 758583)</div></td></tr><tr><td style="font-weight:bold;vertical-align:top;">uuid</td><td style="vertical-align:top;">:</td><td><div>IIIT_MarketPlace/127.0.0.1.2014-11-19.12-57-57.8570dda7-724f-465d-857e-c99217ccb341</div></td></tr><tr><td style="font-weight:bold;vertical-align:top;">wsgi</td><td style="vertical-align:top;">:</td><td><div>&lt;gluon.main.LazyWSGI object at 0x7fc6eafd4b50&gt;</div></td></tr></table></div>'
tRp58
sS'frames'
p59
(lp60
(dp61
S'file'
p62
S'/home/namita/web2py/gluon/restricted.py'
p63
sS'dump'
p64
(dp65
S'environment'
p66
S"{'A': <class 'gluon.html.A'>, 'ANY_OF': <class 'gluon.validators.ANY_OF'>, 'ASSIGNJS': <function ASSIGNJS>, 'Auth': <class 'gluon.tools.Auth'>, 'B': <class 'gluon.html.B'>, 'BEAUTIFY': <class 'gluon.html.BEAUTIFY'>, 'BODY': <class 'gluon.html.BODY'>, 'BR': <class 'gluon.html.BR'>, 'BUTTON': <class 'gluon.html.BUTTON'>, 'CAT': <class 'gluon.html.CAT'>, ...}"
p67
sS'ccode'
p68
S'<code object <module> at 0x7fc6eb107ab0, file "/...lace/views/default/search_by_price.html", line 1>'
p69
ssS'lnum'
p70
I224
sS'lines'
p71
(dp72
I224
S'        exec ccode in environment'
p73
sI225
S'    except HTTP:'
p74
sI226
S'        raise'
p75
sI227
S'    except RestrictedError:'
p76
sI228
S'        # do not encapsulate (obfuscate) the original RestrictedError'
p77
sI219
S'    try:'
p78
sI220
S'        if isinstance(code, types.CodeType):'
p79
sI221
S'            ccode = code'
p80
sI222
S'        else:'
p81
sI223
S'            ccode = compile2(code, layer)'
p82
ssS'call'
p83
S'(code=\'response.write(\\\'<script type="text/javascript"><...  pass\\nresponse.write(\\\'\\\\n</div>\\\\n\\\', escape=False)\', environment={\'A\': <class \'gluon.html.A\'>, \'ANY_OF\': <class \'gluon.validators.ANY_OF\'>, \'ASSIGNJS\': <function ASSIGNJS>, \'Auth\': <class \'gluon.tools.Auth\'>, \'B\': <class \'gluon.html.B\'>, \'BEAUTIFY\': <class \'gluon.html.BEAUTIFY\'>, \'BODY\': <class \'gluon.html.BODY\'>, \'BR\': <class \'gluon.html.BR\'>, \'BUTTON\': <class \'gluon.html.BUTTON\'>, \'CAT\': <class \'gluon.html.CAT\'>, ...}, layer=\'/home/namita/web2py/applications/IIIT_MarketPlace/views/default/search_by_price.html\')'
p84
sS'func'
p85
S'restricted'
p86
sa(dp87
g62
S'/home/namita/web2py/applications/IIIT_MarketPlace/views/default/search_by_price.html'
p88
sg64
(dp89
S'function'
p90
S'undefined'
p91
sS'exception'
p92
g91
sS'end'
p93
g91
sS'success'
p94
g91
sS'builtintype'
p95
S"<type 'type'>"
p96
sS'url'
p97
g91
sS'jqXHR'
p98
g91
sS'of'
p99
g91
sS'window'
p100
g91
sS'alert'
p101
g91
sS'category_value'
p102
g91
sS'ajax'
p103
g91
sS'error'
p104
g91
sS'var'
p105
g91
sS'data'
p106
g91
sS'select'
p107
g91
ssg70
I32
sg71
(dp108
I32
S'    if i==items_per_page: break'
p109
sI33
S'    response.write(\'\\n<a href="\', escape=False)'
p110
sI34
S"    response.write(URL('view_Add.html',args=[row.id]))"
p111
sI35
S'    response.write(\'">\\n<div class="index_add" id="target">\\n    <img src="\', escape=False)'
p112
sI36
S"    response.write(URL('download', args=row.item_img))"
p113
sI37
S'    response.write(\'" />\\n    <div class="space_div"></div>\\n    <div class="view_post_title">Item:</div><div class="view_post_text">\', escape=False)'
p114
sI38
S'    response.write(row.item_name)'
p115
sI39
S'    response.write(\'</div><br>\\n    <div class="view_post_title">Posted By:</div><div class="view_post_text">\', escape=False)'
p116
sI40
S'    response.write(row.created_by.first_name)'
p117
sI41
S'    response.write(\'</div><br>\\n    <div class="view_post_title">Price:</div><div class="view_post_text">\', escape=False)'
p118
sI42
S'    response.write(row.price)'
p119
sI23
S'response.write(\'"\\n$.ajax({\\n        type: "POST",\\n    url:"\', escape=False)'
p120
sI24
S"response.write(URL('default','search_by_category'))"
p121
sI25
S'response.write(\'",\\n    data:{category_value:category_value},\\n     success: function (data){\\n         \\n         $(\\\'#target\\\').html(data);\\n        },\\n    error: function(jqXHR, exception) {\\n            if (jqXHR.status === 0) {\\n                alert(\\\'Not connect.\\\\n Verify Network.\\\');\\n            } else if (jqXHR.status == 404) {\\n                alert(\\\'Requested page not found. [404]\\\');\\n            } else if (jqXHR.status == 500) {\\n                alert(\\\'Internal Server Error [500].\\\');\\n            } else if (exception === \\\'parsererror\\\') {\\n                alert(\\\'Requested JSON parse failed.\\\');\\n            } else if (exception === \\\'timeout\\\') {\\n                alert(\\\'Time out error.\\\');\\n            } else if (exception === \\\'abort\\\') {\\n                alert(\\\'Ajax request aborted.\\\');\\n            } else {\\n                alert(\\\'Uncaught Error.\\\\n\\\' + jqXHR.responseText);\\n            }\\n        }\\n      });\\n\\n});//end of select\\n    $(\\\'#filter_price\\\').change(function() {\\n           //  ajax("\', escape=False)'
p122
sI26
S"response.write(URL('default','view_Add'))"
p123
sI27
S'response.write(\'",[\\\'hi\\\'],\\\'target\\\');\\n             var filter_price=$(\\\'#filter_price\\\').val();\\n\\n$.ajax({\\n        type: "POST",\\n    url:"\', escape=False)'
p124
sI28
S"response.write(URL('default','search_by_price'))"
p125
sI29
S'response.write(\'",\\n    data:{filter_price:filter_price},\\n     success: function (data){\\n         $(\\\'#target\\\').html(data);\\n        },\\n    error: function(jqXHR, exception) {\\n            if (jqXHR.status === 0) {\\n                alert(\\\'Not connect.\\\\n Verify Network.\\\');\\n            } else if (jqXHR.status == 404) {\\n                alert(\\\'Requested page not found. [404]\\\');\\n            } else if (jqXHR.status == 500) {\\n                alert(\\\'Internal Server Error [500].\\\');\\n            } else if (exception === \\\'parsererror\\\') {\\n                alert(\\\'Requested JSON parse failed.\\\');\\n            } else if (exception === \\\'timeout\\\') {\\n                alert(\\\'Time out error.\\\');\\n            } else if (exception === \\\'abort\\\') {\\n                alert(\\\'Ajax request aborted.\\\');\\n            } else {\\n                alert(\\\'Uncaught Error.\\\\n\\\' + jqXHR.responseText);\\n            }\\n        }\\n});\\n      });//select\\n});\\n    </script>\\n\\n</head>\\n\', escape=False)'
p126
sI30
S'for i,row in enumerate(rows):'
p127
sI31
S"    response.write('\\n ', escape=False)"
p128
ssg83
S'()'
p129
sg85
S'<module>'
p130
sasS'pyver'
p131
S'Python 2.7.6: /usr/bin/python (prefix: /usr)'
p132
sS'session'
p133
g57
(S's\xf1\x08\x00\x00<div><table><tr><td style="font-weight:bold;vertical-align:top;">auth</td><td style="vertical-align:top;">:</td><td><div><table><tr><td style="font-weight:bold;vertical-align:top;">expiration</td><td style="vertical-align:top;">:</td><td><div>3600</div></td></tr><tr><td style="font-weight:bold;vertical-align:top;">hmac_key</td><td style="vertical-align:top;">:</td><td><div>82e0a96c-86a6-45f7-b897-201279526833</div></td></tr><tr><td style="font-weight:bold;vertical-align:top;">last_visit</td><td style="vertical-align:top;">:</td><td><div>datetime.datetime(2014, 11, 19, 12, 54, 16, 741801)</div></td></tr><tr><td style="font-weight:bold;vertical-align:top;">remember_me</td><td style="vertical-align:top;">:</td><td><div>False</div></td></tr><tr><td style="font-weight:bold;vertical-align:top;">user</td><td style="vertical-align:top;">:</td><td><div><table><tr><td style="font-weight:bold;vertical-align:top;">email</td><td style="vertical-align:top;">:</td><td><div>namita.shelke@gmail.com</div></td></tr><tr><td style="font-weight:bold;vertical-align:top;">first_name</td><td style="vertical-align:top;">:</td><td><div>Namita</div></td></tr><tr><td style="font-weight:bold;vertical-align:top;">id</td><td style="vertical-align:top;">:</td><td><div>1L</div></td></tr><tr><td style="font-weight:bold;vertical-align:top;">last_name</td><td style="vertical-align:top;">:</td><td><div>Shelke</div></td></tr><tr><td style="font-weight:bold;vertical-align:top;">registration_id</td><td style="vertical-align:top;">:</td><td><div></div></td></tr><tr><td style="font-weight:bold;vertical-align:top;">registration_key</td><td style="vertical-align:top;">:</td><td><div></div></td></tr><tr><td style="font-weight:bold;vertical-align:top;">reset_password_key</td><td style="vertical-align:top;">:</td><td><div></div></td></tr></table></div></td></tr><tr><td style="font-weight:bold;vertical-align:top;">user_groups</td><td style="vertical-align:top;">:</td><td><div><table><tr><td style="font-weight:bold;vertical-align:top;">1</td><td style="vertical-align:top;">:</td><td><div>user_1</div></td></tr></table></div></td></tr></table></div></td></tr><tr><td style="font-weight:bold;vertical-align:top;">flash</td><td style="vertical-align:top;">:</td><td><div>None</div></td></tr></table></div>'
tRp134
sS'etype'
p135
S"<type 'exceptions.NameError'>"
p136
sS'date'
p137
S'Wed Nov 19 12:57:57 2014'
p138
sS'response'
p139
g57
(S'sS$\x00\x00<div><table><tr><td style="font-weight:bold;vertical-align:top;">body</td><td style="vertical-align:top;">:</td><td><div>&lt;cStringIO.StringO object at 0x7fc6eb3da9d0&gt;</div></td></tr><tr><td style="font-weight:bold;vertical-align:top;">cookies</td><td style="vertical-align:top;">:</td><td><div><table><tr><td style="font-weight:bold;vertical-align:top;">session_id_iiit_marketplace</td><td style="vertical-align:top;">:</td><td><div>127.0.0.1-7e3234af-5ff6-4049-b5c3-305e549355c3<table><tr><td style="font-weight:bold;vertical-align:top;">comment</td><td style="vertical-align:top;">:</td><td><div></div></td></tr><tr><td style="font-weight:bold;vertical-align:top;">domain</td><td style="vertical-align:top;">:</td><td><div></div></td></tr><tr><td style="font-weight:bold;vertical-align:top;">expires</td><td style="vertical-align:top;">:</td><td><div></div></td></tr><tr><td style="font-weight:bold;vertical-align:top;">httponly</td><td style="vertical-align:top;">:</td><td><div></div></td></tr><tr><td style="font-weight:bold;vertical-align:top;">max-age</td><td style="vertical-align:top;">:</td><td><div></div></td></tr><tr><td style="font-weight:bold;vertical-align:top;">path</td><td style="vertical-align:top;">:</td><td><div>/</div></td></tr><tr><td style="font-weight:bold;vertical-align:top;">secure</td><td style="vertical-align:top;">:</td><td><div></div></td></tr><tr><td style="font-weight:bold;vertical-align:top;">version</td><td style="vertical-align:top;">:</td><td><div></div></td></tr></table></div></td></tr></table></div></td></tr><tr><td style="font-weight:bold;vertical-align:top;">delimiters</td><td style="vertical-align:top;">:</td><td><div><table><tr><td><div>{{</div></td></tr><tr><td><div>}}</div></td></tr></table></div></td></tr><tr><td style="font-weight:bold;vertical-align:top;">files</td><td style="vertical-align:top;">:</td><td><div><table><tr><td><div>/IIIT_MarketPlace/static/js/jquery.js</div></td></tr><tr><td><div>/IIIT_MarketPlace/static/css/calendar.css</div></td></tr><tr><td><div>/IIIT_MarketPlace/static/js/calendar.js</div></td></tr><tr><td><div>/IIIT_MarketPlace/static/js/web2py.js</div></td></tr></table></div></td></tr><tr><td style="font-weight:bold;vertical-align:top;">flash</td><td style="vertical-align:top;">:</td><td><div></div></td></tr><tr><td style="font-weight:bold;vertical-align:top;">form_label_separator</td><td style="vertical-align:top;">:</td><td><div>: </div></td></tr><tr><td style="font-weight:bold;vertical-align:top;">formstyle</td><td style="vertical-align:top;">:</td><td><div>table3cols</div></td></tr><tr><td style="font-weight:bold;vertical-align:top;">generic_patterns</td><td style="vertical-align:top;">:</td><td><div><table><tr><td><div>*</div></td></tr></table></div></td></tr><tr><td style="font-weight:bold;vertical-align:top;">google_analytics_id</td><td style="vertical-align:top;">:</td><td><div>None</div></td></tr><tr><td style="font-weight:bold;vertical-align:top;">headers</td><td style="vertical-align:top;">:</td><td><div><table><tr><td style="font-weight:bold;vertical-align:top;">X-Powered-By</td><td style="vertical-align:top;">:</td><td><div>web2py</div></td></tr></table></div></td></tr><tr><td style="font-weight:bold;vertical-align:top;">logo</td><td style="vertical-align:top;">:</td><td><div><a class="brand" href="http://www.web2py.com/"><b>web<span>2</span>py</b>&trade;&nbsp;</a></div></td></tr><tr><td style="font-weight:bold;vertical-align:top;">menu</td><td style="vertical-align:top;">:</td><td><div><table><tr><td><div><table><tr><td><div>Root1</div></td></tr><tr><td><div>False</div></td></tr><tr><td><div></div></td></tr><tr><td><div><table><tr><td><div><table><tr><td><div>level1-1</div></td></tr><tr><td><div>False</div></td></tr><tr><td><div>/IIIT_MarketPlace/controller/function</div></td></tr><tr><td><div>[[&#x27;Level2-1&#x27;, False, &#x27;/IIIT_MarketPlace/controller/function&#x27;, []]]</div></td></tr></table></div></td></tr><tr><td><div><table><tr><td><div>Level1-2</div></td></tr><tr><td><div>False</div></td></tr><tr><td><div>/IIIT_MarketPlace/controller/function</div></td></tr><tr><td><div>[]</div></td></tr></table></div></td></tr><tr><td><div><table><tr><td><div>Level1-3</div></td></tr><tr><td><div>False</div></td></tr><tr><td><div>/IIIT_MarketPlace/controller/function</div></td></tr><tr><td><div>[]</div></td></tr></table></div></td></tr></table></div></td></tr></table></div></td></tr><tr><td><div><table><tr><td><div>Root2</div></td></tr><tr><td><div>False</div></td></tr><tr><td><div></div></td></tr><tr><td><div><table><tr><td><div><table><tr><td><div>Level1-1</div></td></tr><tr><td><div>False</div></td></tr><tr><td><div>/IIIT_MarketPlace/controller/function</div></td></tr><tr><td><div>[]</div></td></tr></table></div></td></tr><tr><td><div><table><tr><td><div>Level1-2</div></td></tr><tr><td><div>False</div></td></tr><tr><td><div>/IIIT_MarketPlace/controller/function</div></td></tr><tr><td><div>[]</div></td></tr></table></div></td></tr></table></div></td></tr></table></div></td></tr><tr><td><div><table><tr><td><div>My profile</div></td></tr><tr><td><div>False</div></td></tr><tr><td><div>/IIIT_MarketPlace/default/index</div></td></tr><tr><td><div><table></table></div></td></tr></table></div></td></tr></table></div></td></tr><tr><td style="font-weight:bold;vertical-align:top;">meta</td><td style="vertical-align:top;">:</td><td><div><table><tr><td style="font-weight:bold;vertical-align:top;">author</td><td style="vertical-align:top;">:</td><td><div>Your Name &lt;you@example.com&gt;</div></td></tr><tr><td style="font-weight:bold;vertical-align:top;">generator</td><td style="vertical-align:top;">:</td><td><div>Web2py Web Framework</div></td></tr><tr><td style="font-weight:bold;vertical-align:top;">keywords</td><td style="vertical-align:top;">:</td><td><div>web2py, python, framework</div></td></tr></table></div></td></tr><tr><td style="font-weight:bold;vertical-align:top;">models_to_run</td><td style="vertical-align:top;">:</td><td><div><table><tr><td><div>^\\w+\\.py$</div></td></tr><tr><td><div>^default/\\w+\\.py$</div></td></tr><tr><td><div>^default/search_by_price/\\w+\\.py$</div></td></tr></table></div></td></tr><tr><td style="font-weight:bold;vertical-align:top;">postprocessing</td><td style="vertical-align:top;">:</td><td><div><table></table></div></td></tr><tr><td style="font-weight:bold;vertical-align:top;">session_client</td><td style="vertical-align:top;">:</td><td><div>127.0.0.1</div></td></tr><tr><td style="font-weight:bold;vertical-align:top;">session_cookie_compression_level</td><td style="vertical-align:top;">:</td><td><div>None</div></td></tr><tr><td style="font-weight:bold;vertical-align:top;">session_cookie_expires</td><td style="vertical-align:top;">:</td><td><div>None</div></td></tr><tr><td style="font-weight:bold;vertical-align:top;">session_cookie_key</td><td style="vertical-align:top;">:</td><td><div>None</div></td></tr><tr><td style="font-weight:bold;vertical-align:top;">session_data_name</td><td style="vertical-align:top;">:</td><td><div>session_data_iiit_marketplace</div></td></tr><tr><td style="font-weight:bold;vertical-align:top;">session_file</td><td style="vertical-align:top;">:</td><td><div>&lt;open file &#x27;/home/namita/web2py/applications/IIIT_MarketPlace/sessions/08b/1f1/127.0.0.1-7e3234af-5ff6-4049-b5c3-305e549355c3&#x27;, mode &#x27;rb+&#x27; at 0x7fc71e928d20&gt;</div></td></tr><tr><td style="font-weight:bold;vertical-align:top;">session_filename</td><td style="vertical-align:top;">:</td><td><div>/home/namita/web2py/applications/IIIT_MarketPlace/sessions/127.0.0.1-7e3234af-5ff6-4049-b5c3-305e549355c3</div></td></tr><tr><td style="font-weight:bold;vertical-align:top;">session_hash</td><td style="vertical-align:top;">:</td><td><div>7c9df7b8d4ba1c4116fc09438d28dbd3</div></td></tr><tr><td style="font-weight:bold;vertical-align:top;">session_id</td><td style="vertical-align:top;">:</td><td><div>127.0.0.1-7e3234af-5ff6-4049-b5c3-305e549355c3</div></td></tr><tr><td style="font-weight:bold;vertical-align:top;">session_id_name</td><td style="vertical-align:top;">:</td><td><div>session_id_iiit_marketplace</div></td></tr><tr><td style="font-weight:bold;vertical-align:top;">session_locked</td><td style="vertical-align:top;">:</td><td><div>True</div></td></tr><tr><td style="font-weight:bold;vertical-align:top;">session_masterapp</td><td style="vertical-align:top;">:</td><td><div>IIIT_MarketPlace</div></td></tr><tr><td style="font-weight:bold;vertical-align:top;">session_new</td><td style="vertical-align:top;">:</td><td><div>False</div></td></tr><tr><td style="font-weight:bold;vertical-align:top;">session_storage_type</td><td style="vertical-align:top;">:</td><td><div>file</div></td></tr><tr><td style="font-weight:bold;vertical-align:top;">status</td><td style="vertical-align:top;">:</td><td><div>200</div></td></tr><tr><td style="font-weight:bold;vertical-align:top;">subtitle</td><td style="vertical-align:top;">:</td><td><div></div></td></tr><tr><td style="font-weight:bold;vertical-align:top;">title</td><td style="vertical-align:top;">:</td><td><div>Iiit Marketplace</div></td></tr><tr><td style="font-weight:bold;vertical-align:top;">view</td><td style="vertical-align:top;">:</td><td><div>default/search_by_price.html</div></td></tr></table></div>'
tRp140
sS'locals'
p141
(dp142
S'Service'
p143
S"<class 'gluon.tools.Service'>"
p144
sS'OBJECT'
p145
S"<class 'gluon.html.OBJECT'>"
p146
sS'SQLDB'
p147
S"<class 'gluon.dal.DAL'>"
p148
sg133
S"<Storage {'_formkey[bidding/create]': ['741d27cd...gin]': ['bc62c368-d981-468f-a70a-4e19ce339219']}>"
p149
sS'LINK'
p150
S"<class 'gluon.html.LINK'>"
p151
sS'BR'
p152
S"<class 'gluon.html.BR'>"
p153
sS'local_import'
p154
S'<function <lambda>>'
p155
sS'OPTGROUP'
p156
S"<class 'gluon.html.OPTGROUP'>"
p157
sS'__package__'
p158
S'None'
p159
sS'row'
p160
S"<Row {'category': 'Electronics', 'status': 'open...ime.datetime(2014, 11, 18, 1, 27, 1), 'id': 18L}>"
p161
sS'PRE'
p162
S"<class 'gluon.html.PRE'>"
p163
sS'IS_INT_IN_RANGE'
p164
S"<class 'gluon.validators.IS_INT_IN_RANGE'>"
p165
sS'IS_LOWER'
p166
S"<class 'gluon.validators.IS_LOWER'>"
p167
sS'IS_STRONG'
p168
S"<class 'gluon.validators.IS_STRONG'>"
p169
sS'cache'
p170
S'<gluon.cache.Cache object>'
p171
sS'IS_IN_DB'
p172
S"<class 'gluon.validators.IS_IN_DB'>"
p173
sS'TAG'
p174
S'<gluon.html.__TAG__ object>'
p175
sS'SQLField'
p176
S"<class 'gluon.dal.Field'>"
p177
sS'mail'
p178
S'<gluon.tools.Mail object>'
p179
sS'BODY'
p180
S"<class 'gluon.html.BODY'>"
p181
sS'IS_DATE_IN_RANGE'
p182
S"<class 'gluon.validators.IS_DATE_IN_RANGE'>"
p183
sS'IFRAME'
p184
S"<class 'gluon.html.IFRAME'>"
p185
sS'URL'
p186
S'<function URL>'
p187
sS'__file__'
p188
S"'/home/namita/web2py/applications/IIIT_MarketPlace/views/default/search_by_price.html'"
p189
sS'db'
p190
S'<DAL uri="sqlite://storage.sqlite">'
p191
sS'auth'
p192
S'<gluon.tools.Auth object>'
p193
sS'P'
S"<class 'gluon.html.P'>"
p194
sS'TFOOT'
p195
S"<class 'gluon.html.TFOOT'>"
p196
sS'XHTML'
p197
S"<class 'gluon.html.XHTML'>"
p198
sS'ON'
p199
S'True'
p200
sS'OL'
p201
S"<class 'gluon.html.OL'>"
p202
sS'TEXTAREA'
p203
S"<class 'gluon.html.TEXTAREA'>"
p204
sS'MENU'
p205
S"<class 'gluon.html.MENU'>"
p206
sS'IS_IMAGE'
p207
S"<class 'gluon.validators.IS_IMAGE'>"
p208
sS'EM'
p209
S"<class 'gluon.html.EM'>"
p210
sS'CODE'
p211
S"<class 'gluon.html.CODE'>"
p212
sS'HTTP'
p213
S"<class 'gluon.http.HTTP'>"
p214
sS'HR'
p215
S"<class 'gluon.html.HR'>"
p216
sS'IS_DATETIME'
p217
S"<class 'gluon.validators.IS_DATETIME'>"
p218
sS'STYLE'
p219
S"<class 'gluon.html.STYLE'>"
p220
sS'LABEL'
p221
S"<class 'gluon.html.LABEL'>"
p222
sS'CLEANUP'
p223
S"<class 'gluon.validators.CLEANUP'>"
p224
sS'plugins'
p225
S'<gluon.tools.PluginManager object>'
p226
sS'SELECT'
p227
S"<class 'gluon.html.SELECT'>"
p228
sS'use_janrain'
p229
S'<function use_janrain>'
p230
sS'CENTER'
p231
S"<class 'gluon.html.CENTER'>"
p232
sS'Auth'
p233
S"<class 'gluon.tools.Auth'>"
p234
sS'DEVELOPMENT_MENU'
p235
g200
sS'__builtins__'
p236
S"{'ArithmeticError': <type 'exceptions.ArithmeticError'>, 'AssertionError': <type 'exceptions.AssertionError'>, 'AttributeError': <type 'exceptions.AttributeError'>, 'BaseException': <type 'exceptions.BaseException'>, 'BufferError': <type 'exceptions.BufferError'>, 'BytesWarning': <type 'exceptions.BytesWarning'>, 'DeprecationWarning': <type 'exceptions.DeprecationWarning'>, 'EOFError': <type 'exceptions.EOFError'>, 'Ellipsis': Ellipsis, 'EnvironmentError': <type 'exceptions.EnvironmentError'>, ...}"
p237
sS'HTML'
p238
S"<class 'gluon.html.HTML'>"
p239
sS'SQLFORM'
p240
S"<class 'gluon.sqlhtml.SQLFORM'>"
p241
sS'LOAD'
p242
S'<function LOAD>'
p243
sS'redirect'
p244
S'<function redirect>'
p245
sS'FIELDSET'
p246
S"<class 'gluon.html.FIELDSET'>"
p247
sS'IS_EQUAL_TO'
p248
S"<class 'gluon.validators.IS_EQUAL_TO'>"
p249
sS'embed64'
p250
S'<function embed64>'
p251
sS'IS_LIST_OF'
p252
S"<class 'gluon.validators.IS_LIST_OF'>"
p253
sS'INPUT'
p254
S"<class 'gluon.html.INPUT'>"
p255
sS'EMBED'
p256
S"<class 'gluon.html.EMBED'>"
p257
sS'_'
S'<function _>'
p258
sS'H2'
p259
S"<class 'gluon.html.H2'>"
p260
sS'H3'
p261
S"<class 'gluon.html.H3'>"
p262
sS'BUTTON'
p263
S"<class 'gluon.html.BUTTON'>"
p264
sS'H1'
p265
S"<class 'gluon.html.H1'>"
p266
sS'H6'
p267
S"<class 'gluon.html.H6'>"
p268
sS'H4'
p269
S"<class 'gluon.html.H4'>"
p270
sS'H5'
p271
S"<class 'gluon.html.H5'>"
p272
sS'UL'
p273
S"<class 'gluon.html.UL'>"
p274
sS'IS_UPPER'
p275
S"<class 'gluon.validators.IS_UPPER'>"
p276
sS'xmlescape'
p277
S'<function xmlescape>'
p278
sS'IS_TIME'
p279
S"<class 'gluon.validators.IS_TIME'>"
p280
sS'OPTION'
p281
S"<class 'gluon.html.OPTION'>"
p282
sS'TITLE'
p283
S"<class 'gluon.html.TITLE'>"
p284
sS'CRYPT'
p285
S"<class 'gluon.validators.CRYPT'>"
p286
sS'IS_EMPTY_OR'
p287
S"<class 'gluon.validators.IS_EMPTY_OR'>"
p288
sS'MARKMIN'
p289
S"<class 'gluon.html.MARKMIN'>"
p290
sS'__name__'
p291
S"'__restricted__'"
p292
sS'STRONG'
p293
S"<class 'gluon.html.STRONG'>"
p294
sS'COL'
p295
S"<class 'gluon.html.COL'>"
p296
sS'rows'
p297
S'<Rows (3)>'
p298
sS'service'
p299
S'<gluon.tools.Service object>'
p300
sS'SCRIPT'
p301
S"<class 'gluon.html.SCRIPT'>"
p302
sS'TABLE'
p303
S"<class 'gluon.html.TABLE'>"
p304
sS'IS_IPV4'
p305
S"<class 'gluon.validators.IS_IPV4'>"
p306
sS'IS_LENGTH'
p307
S"<class 'gluon.validators.IS_LENGTH'>"
p308
sS'IS_IPV6'
p309
S"<class 'gluon.validators.IS_IPV6'>"
p310
sS'XML'
p311
S"<class 'gluon.html.XML'>"
p312
sS'B'
S"<class 'gluon.html.B'>"
p313
sS'IMG'
p314
S"<class 'gluon.html.IMG'>"
p315
sS'SQLTABLE'
p316
S"<class 'gluon.sqlhtml.SQLTABLE'>"
p317
sS'IS_MATCH'
p318
S"<class 'gluon.validators.IS_MATCH'>"
p319
sS'IS_ALPHANUMERIC'
p320
S"<class 'gluon.validators.IS_ALPHANUMERIC'>"
p321
sS'SPAN'
p322
S"<class 'gluon.html.SPAN'>"
p323
sS'IS_JSON'
p324
S"<class 'gluon.validators.IS_JSON'>"
p325
sS'IS_IPADDRESS'
p326
S"<class 'gluon.validators.IS_IPADDRESS'>"
p327
sS'IS_SLUG'
p328
S"<class 'gluon.validators.IS_SLUG'>"
p329
sS'BEAUTIFY'
p330
S"<class 'gluon.html.BEAUTIFY'>"
p331
sS'META'
p332
S"<class 'gluon.html.META'>"
p333
sS'IS_DATE'
p334
S"<class 'gluon.validators.IS_DATE'>"
p335
sS'IS_EMAIL'
p336
S"<class 'gluon.validators.IS_EMAIL'>"
p337
sS'IS_NOT_EMPTY'
p338
S"<class 'gluon.validators.IS_NOT_EMPTY'>"
p339
sS'IS_FLOAT_IN_RANGE'
p340
S"<class 'gluon.validators.IS_FLOAT_IN_RANGE'>"
p341
sS'TBODY'
p342
S"<class 'gluon.html.TBODY'>"
p343
sS'CAT'
p344
S"<class 'gluon.html.CAT'>"
p345
sS'Field'
p346
S"<class 'gluon.dal.Field'>"
p347
sS'IS_LIST_OF_EMAILS'
p348
S"<class 'gluon.validators.IS_LIST_OF_EMAILS'>"
p349
sS'DIV'
p350
S"<class 'gluon.html.DIV'>"
p351
sS'LEGEND'
p352
S"<class 'gluon.html.LEGEND'>"
p353
sS'COLGROUP'
p354
S"<class 'gluon.html.COLGROUP'>"
p355
sS'DAL'
p356
S"<class 'gluon.dal.DAL'>"
p357
sS'ASSIGNJS'
p358
S'<function ASSIGNJS>'
p359
sS'TR'
p360
S"<class 'gluon.html.TR'>"
p361
sS'LI'
p362
S"<class 'gluon.html.LI'>"
p363
sS'TH'
p364
S"<class 'gluon.html.TH'>"
p365
sS'TD'
p366
S"<class 'gluon.html.TD'>"
p367
sS'PluginManager'
p368
S"<class 'gluon.tools.PluginManager'>"
p369
sS'IS_URL'
p370
S"<class 'gluon.validators.IS_URL'>"
p371
sS'A'
S"<class 'gluon.html.A'>"
p372
sS'HEAD'
p373
S"<class 'gluon.html.HEAD'>"
p374
sS'IS_DATETIME_IN_RANGE'
p375
S"<class 'gluon.validators.IS_DATETIME_IN_RANGE'>"
p376
sS'FORM'
p377
S"<class 'gluon.html.FORM'>"
p378
sS'I'
S"<class 'gluon.html.I'>"
p379
sS'IS_NOT_IN_DB'
p380
S"<class 'gluon.validators.IS_NOT_IN_DB'>"
p381
sg139
S"<Storage {'body': <cStringIO.StringO object at 0...10acf8>, 'view': 'default/search_by_price.html'}>"
p382
sS'THEAD'
p383
S"<class 'gluon.html.THEAD'>"
p384
sS'ANY_OF'
p385
S"<class 'gluon.validators.ANY_OF'>"
p386
sS'IS_NULL_OR'
p387
S"<class 'gluon.validators.IS_EMPTY_OR'>"
p388
sS'i'
S'0'
sg56
S"<Storage {'_vars': <Storage {'filter_price': '50...e/namita/web2py/applications/IIIT_MarketPlace/'}>"
p389
sS'IS_EXPR'
p390
S"<class 'gluon.validators.IS_EXPR'>"
p391
sS'T'
S'<gluon.languages.translator object>'
p392
sS'IS_IN_SET'
p393
S"<class 'gluon.validators.IS_IN_SET'>"
p394
sS'IS_UPLOAD_FILENAME'
p395
S"<class 'gluon.validators.IS_UPLOAD_FILENAME'>"
p396
sS'TT'
p397
S"<class 'gluon.html.TT'>"
p398
sS'IS_DECIMAL_IN_RANGE'
p399
S"<class 'gluon.validators.IS_DECIMAL_IN_RANGE'>"
p400
sssS'traceback'
p401
S'Traceback (most recent call last):\n  File "/home/namita/web2py/gluon/restricted.py", line 224, in restricted\n    exec ccode in environment\n  File "/home/namita/web2py/applications/IIIT_MarketPlace/views/default/search_by_price.html", line 32, in <module>\nNameError: name \'items_per_page\' is not defined\n'
p402
s.